; Function Attrs: mustprogress uwtable
define void @_ZN7openvdb5v11_02io19compressionToStringB5cxx11Ej(ptr noalias sret(%"class.std::__cxx11::basic_string") align 8 %agg.result, i32 noundef %flags) local_unnamed_addr #3 personality ptr @__gxx_personality_v0 {
entry:
  %ref.tmp = alloca %"class.std::allocator", align 1
  %cmp = icmp eq i32 %flags, 0
  br i1 %cmp, label %if.then, label %if.end

if.then:                                          ; preds = %entry
  call void @_ZNSaIcEC1Ev(ptr noundef nonnull align 1 dereferenceable(1) %ref.tmp) #11
  %call.i5 = invoke noundef ptr @_ZNSt7__cxx1112basic_stringIcSt11char_traitsIcESaIcEE13_M_local_dataEv(ptr noundef nonnull align 8 dereferenceable(32) %agg.result)
          to label %call.i.noexc unwind label %lpad

call.i.noexc:                                     ; preds = %if.then
  invoke void @_ZNSt7__cxx1112basic_stringIcSt11char_traitsIcESaIcEE12_Alloc_hiderC1EPcRKS3_(ptr noundef nonnull align 8 dereferenceable(8) %agg.result, ptr noundef %call.i5, ptr noundef nonnull align 1 dereferenceable(1) %ref.tmp)
          to label %.noexc unwind label %lpad

.noexc:                                           ; preds = %call.i.noexc
  invoke void @_ZNSt7__cxx1112basic_stringIcSt11char_traitsIcESaIcEE12_M_constructIPKcEEvT_S8_St20forward_iterator_tag(ptr noundef nonnull align 8 dereferenceable(32) %agg.result, ptr noundef nonnull @.str, ptr noundef nonnull getelementptr inbounds ([5 x i8], ptr @.str, i64 0, i64 4))
          to label %invoke.cont unwind label %lpad.i

lpad.i:                                           ; preds = %.noexc
  %0 = landingpad { ptr, i32 }
          cleanup
  call void @_ZNSaIcED2Ev(ptr noundef nonnull align 1 dereferenceable(1) %agg.result) #11
  br label %lpad.body

invoke.cont:                                      ; preds = %.noexc
  call void @_ZNSaIcED1Ev(ptr noundef nonnull align 1 dereferenceable(1) %ref.tmp) #11
  br label %return

lpad:                                             ; preds = %call.i.noexc, %if.then
  %1 = landingpad { ptr, i32 }
          cleanup
  br label %lpad.body

lpad.body:                                        ; preds = %lpad.i, %lpad
  %eh.lpad-body = phi { ptr, i32 } [ %1, %lpad ], [ %0, %lpad.i ]
  call void @_ZNSaIcED1Ev(ptr noundef nonnull align 1 dereferenceable(1) %ref.tmp) #11
  br label %eh.resume

if.end:                                           ; preds = %entry
  tail call void @_ZNSt7__cxx1112basic_stringIcSt11char_traitsIcESaIcEEC1Ev(ptr noundef nonnull align 8 dereferenceable(32) %agg.result) #11
  %and = and i32 %flags, 1
  %tobool.not = icmp eq i32 %and, 0
  br i1 %tobool.not, label %if.end4, label %if.then1

if.then1:                                         ; preds = %if.end
  %call = invoke noundef nonnull align 8 dereferenceable(32) ptr @_ZNSt7__cxx1112basic_stringIcSt11char_traitsIcESaIcEEpLEPKc(ptr noundef nonnull align 8 dereferenceable(32) %agg.result, ptr noundef nonnull @.str.1)
          to label %if.end4 unwind label %lpad2

lpad2:                                            ; preds = %if.then18, %if.then13, %if.then7, %if.then1
  %2 = landingpad { ptr, i32 }
          cleanup
  tail call void @_ZNSt7__cxx1112basic_stringIcSt11char_traitsIcESaIcEED1Ev(ptr noundef nonnull align 8 dereferenceable(32) %agg.result) #11
  br label %eh.resume

if.end4:                                          ; preds = %if.then1, %if.end
  %and5 = and i32 %flags, 4
  %tobool6.not = icmp eq i32 %and5, 0
  br i1 %tobool6.not, label %if.end10, label %if.then7

if.then7:                                         ; preds = %if.end4
  %call9 = invoke noundef nonnull align 8 dereferenceable(32) ptr @_ZNSt7__cxx1112basic_stringIcSt11char_traitsIcESaIcEEpLEPKc(ptr noundef nonnull align 8 dereferenceable(32) %agg.result, ptr noundef nonnull @.str.2)
          to label %if.end10 unwind label %lpad2

if.end10:                                         ; preds = %if.then7, %if.end4
  %and11 = and i32 %flags, 2
  %tobool12.not = icmp eq i32 %and11, 0
  br i1 %tobool12.not, label %if.end16, label %if.then13

if.then13:                                        ; preds = %if.end10
  %call15 = invoke noundef nonnull align 8 dereferenceable(32) ptr @_ZNSt7__cxx1112basic_stringIcSt11char_traitsIcESaIcEEpLEPKc(ptr noundef nonnull align 8 dereferenceable(32) %agg.result, ptr noundef nonnull @.str.3)
          to label %if.end16 unwind label %lpad2

if.end16:                                         ; preds = %if.then13, %if.end10
  %call17 = tail call noundef zeroext i1 @_ZNKSt7__cxx1112basic_stringIcSt11char_traitsIcESaIcEE5emptyEv(ptr noundef nonnull align 8 dereferenceable(32) %agg.result) #11
  br i1 %call17, label %return, label %if.then18

if.then18:                                        ; preds = %if.end16
  %call19 = tail call noundef i64 @_ZNKSt7__cxx1112basic_stringIcSt11char_traitsIcESaIcEE4sizeEv(ptr noundef nonnull align 8 dereferenceable(32) %agg.result) #11
  %sub = add i64 %call19, -3
  invoke void @_ZNSt7__cxx1112basic_stringIcSt11char_traitsIcESaIcEE6resizeEm(ptr noundef nonnull align 8 dereferenceable(32) %agg.result, i64 noundef %sub)
          to label %return unwind label %lpad2

return:                                           ; preds = %if.end16, %if.then18, %invoke.cont
  ret void

eh.resume:                                        ; preds = %lpad2, %lpad.body
  %.pn = phi { ptr, i32 } [ %eh.lpad-body, %lpad.body ], [ %2, %lpad2 ]
  resume { ptr, i32 } %.pn
}